; ModuleID = '33/2537.c'
source_filename = "33/2537.c"
target datalayout = "e-m:e-p270:32:32-p271:32:32-p272:64:64-i64:64-f80:128-n8:16:32:64-S128"
target triple = "x86_64-pc-linux-gnu"

@.str = private unnamed_addr constant [3 x i8] c"%d\00", align 1
@.str.1 = private unnamed_addr constant [3 x i8] c"%s\00", align 1
@.str.2 = private unnamed_addr constant [4 x i8] c"%s\0A\00", align 1

; Function Attrs: noinline nounwind uwtable
define dso_local i32 @main() #0 {
  %1 = alloca i32, align 4
  %2 = alloca i32, align 4
  %3 = alloca i32, align 4
  %4 = alloca i32, align 4
  %5 = alloca [1000 x i32], align 16
  %6 = alloca [1000 x [256 x i8]], align 16
  store i32 0, i32* %1, align 4
  %7 = call i32 (i8*, ...) @__isoc99_scanf(i8* getelementptr inbounds ([3 x i8], [3 x i8]* @.str, i64 0, i64 0), i32* %2)
  store i32 0, i32* %3, align 4
  br label %8

8:                                                ; preds = %76, %0
  %9 = load i32, i32* %3, align 4
  %10 = load i32, i32* %2, align 4
  %11 = icmp slt i32 %9, %10
  br i1 %11, label %12, label %79

12:                                               ; preds = %8
  %13 = load i32, i32* %3, align 4
  %14 = sext i32 %13 to i64
  %15 = getelementptr inbounds [1000 x [256 x i8]], [1000 x [256 x i8]]* %6, i64 0, i64 %14
  %16 = getelementptr inbounds [256 x i8], [256 x i8]* %15, i64 0, i64 0
  %17 = call i32 (i8*, ...) @__isoc99_scanf(i8* getelementptr inbounds ([3 x i8], [3 x i8]* @.str.1, i64 0, i64 0), i8* %16)
  %18 = load i32, i32* %3, align 4
  %19 = sext i32 %18 to i64
  %20 = getelementptr inbounds [1000 x [256 x i8]], [1000 x [256 x i8]]* %6, i64 0, i64 %19
  %21 = getelementptr inbounds [256 x i8], [256 x i8]* %20, i64 0, i64 0
  %22 = call i64 @strlen(i8* %21) #3
  %23 = trunc i64 %22 to i32
  %24 = load i32, i32* %3, align 4
  %25 = sext i32 %24 to i64
  %26 = getelementptr inbounds [1000 x i32], [1000 x i32]* %5, i64 0, i64 %25
  store i32 %23, i32* %26, align 4
  store i32 0, i32* %4, align 4
  br label %27

27:                                               ; preds = %72, %12
  %28 = load i32, i32* %4, align 4
  %29 = load i32, i32* %3, align 4
  %30 = sext i32 %29 to i64
  %31 = getelementptr inbounds [1000 x i32], [1000 x i32]* %5, i64 0, i64 %30
  %32 = load i32, i32* %31, align 4
  %33 = icmp slt i32 %28, %32
  br i1 %33, label %34, label %75

34:                                               ; preds = %27
  %35 = load i32, i32* %3, align 4
  %36 = sext i32 %35 to i64
  %37 = getelementptr inbounds [1000 x [256 x i8]], [1000 x [256 x i8]]* %6, i64 0, i64 %36
  %38 = load i32, i32* %4, align 4
  %39 = sext i32 %38 to i64
  %40 = getelementptr inbounds [256 x i8], [256 x i8]* %37, i64 0, i64 %39
  %41 = load i8, i8* %40, align 1
  %42 = sext i8 %41 to i32
  switch i32 %42, label %71 [
    i32 65, label %43
    i32 84, label %50
    i32 67, label %57
    i32 71, label %64
  ]

43:                                               ; preds = %34
  %44 = load i32, i32* %3, align 4
  %45 = sext i32 %44 to i64
  %46 = getelementptr inbounds [1000 x [256 x i8]], [1000 x [256 x i8]]* %6, i64 0, i64 %45
  %47 = load i32, i32* %4, align 4
  %48 = sext i32 %47 to i64
  %49 = getelementptr inbounds [256 x i8], [256 x i8]* %46, i64 0, i64 %48
  store i8 84, i8* %49, align 1
  br label %71

50:                                               ; preds = %34
  %51 = load i32, i32* %3, align 4
  %52 = sext i32 %51 to i64
  %53 = getelementptr inbounds [1000 x [256 x i8]], [1000 x [256 x i8]]* %6, i64 0, i64 %52
  %54 = load i32, i32* %4, align 4
  %55 = sext i32 %54 to i64
  %56 = getelementptr inbounds [256 x i8], [256 x i8]* %53, i64 0, i64 %55
  store i8 65, i8* %56, align 1
  br label %71

57:                                               ; preds = %34
  %58 = load i32, i32* %3, align 4
  %59 = sext i32 %58 to i64
  %60 = getelementptr inbounds [1000 x [256 x i8]], [1000 x [256 x i8]]* %6, i64 0, i64 %59
  %61 = load i32, i32* %4, align 4
  %62 = sext i32 %61 to i64
  %63 = getelementptr inbounds [256 x i8], [256 x i8]* %60, i64 0, i64 %62
  store i8 71, i8* %63, align 1
  br label %71

64:                                               ; preds = %34
  %65 = load i32, i32* %3, align 4
  %66 = sext i32 %65 to i64
  %67 = getelementptr inbounds [1000 x [256 x i8]], [1000 x [256 x i8]]* %6, i64 0, i64 %66
  %68 = load i32, i32* %4, align 4
  %69 = sext i32 %68 to i64
  %70 = getelementptr inbounds [256 x i8], [256 x i8]* %67, i64 0, i64 %69
  store i8 67, i8* %70, align 1
  br label %71

71:                                               ; preds = %34, %64, %57, %50, %43
  br label %72

72:                                               ; preds = %71
  %73 = load i32, i32* %4, align 4
  %74 = add nsw i32 %73, 1
  store i32 %74, i32* %4, align 4
  br label %27

75:                                               ; preds = %27
  br label %76

76:                                               ; preds = %75
  %77 = load i32, i32* %3, align 4
  %78 = add nsw i32 %77, 1
  store i32 %78, i32* %3, align 4
  br label %8

79:                                               ; preds = %8
  store i32 0, i32* %3, align 4
  br label %80

80:                                               ; preds = %90, %79
  %81 = load i32, i32* %3, align 4
  %82 = load i32, i32* %2, align 4
  %83 = icmp slt i32 %81, %82
  br i1 %83, label %84, label %93

84:                                               ; preds = %80
  %85 = load i32, i32* %3, align 4
  %86 = sext i32 %85 to i64
  %87 = getelementptr inbounds [1000 x [256 x i8]], [1000 x [256 x i8]]* %6, i64 0, i64 %86
  %88 = getelementptr inbounds [256 x i8], [256 x i8]* %87, i64 0, i64 0
  %89 = call i32 (i8*, ...) @printf(i8* getelementptr inbounds ([4 x i8], [4 x i8]* @.str.2, i64 0, i64 0), i8* %88)
  br label %90

90:                                               ; preds = %84
  %91 = load i32, i32* %3, align 4
  %92 = add nsw i32 %91, 1
  store i32 %92, i32* %3, align 4
  br label %80

93:                                               ; preds = %80
  ret i32 0
}

declare dso_local i32 @__isoc99_scanf(i8*, ...) #1

; Function Attrs: nounwind readonly
declare dso_local i64 @strlen(i8*) #2

declare dso_local i32 @printf(i8*, ...) #1


!llvm.module.flags = !{!0}
!llvm.ident = !{!1}

!0 = !{i32 1, !"wchar_size", i32 4}
!1 = !{!"clang version 10.0.0-4ubuntu1 "}
